target datalayout = "e-m:e-p270:32:32-p271:32:32-p272:64:64-i64:64-i128:128-f80:128-n8:16:32:64-S128"
target triple = "x86_64-pc-linux-gnu"

%"class.btSoftBody::DeformableRigidContact" = type { %"struct.btSoftBody::sCti", %class.btMatrix3x3, %class.btVector3, float, float, float, %class.btMatrix3x3, [4 x i8], %struct.btMultiBodyJacobianData, %struct.btMultiBodyJacobianData, %struct.btMultiBodyJacobianData, %class.btVector3, %class.btVector3 }
%"struct.btSoftBody::sCti" = type <{ ptr, %class.btVector3, %class.btVector3, float, %class.btVector3, [4 x i8] }>
%class.btMatrix3x3 = type { [3 x %class.btVector3] }
%struct.btMultiBodyJacobianData = type <{ %class.btAlignedObjectArray, %class.btAlignedObjectArray, %class.btAlignedObjectArray, %class.btAlignedObjectArray, %class.btAlignedObjectArray.0, %class.btAlignedObjectArray.2, ptr, i32, [4 x i8] }>
%class.btAlignedObjectArray = type <{ [4 x i8], i32, i32, [4 x i8], ptr, i8, [7 x i8] }>
%class.btAlignedObjectArray.0 = type <{ [4 x i8], i32, i32, [4 x i8], ptr, i8, [7 x i8] }>
%class.btAlignedObjectArray.2 = type <{ [4 x i8], i32, i32, [4 x i8], ptr, i8, [7 x i8] }>
%class.btVector3 = type { [4 x float] }
%class.btDeformableNodeAnchorConstraint = type { %class.btDeformableContactConstraint, ptr }
%class.btDeformableContactConstraint = type { ptr, i8, ptr, %class.btVector3 }

; Function Attrs: mustprogress nounwind uwtable
define linkonce_odr dso_local void @_ZN29btDeformableContactConstraintC2ERK9btVector3RK19btContactSolverInfo(ptr noundef nonnull align 8 dereferenceable(40) %0, ptr noundef nonnull align 4 dereferenceable(16) %1, ptr noundef nonnull align 4 dereferenceable(128) %2) unnamed_addr #1 comdat align 2 {
  %4 = alloca ptr, align 8
  %5 = alloca ptr, align 8
  %6 = alloca ptr, align 8
  store ptr %0, ptr %4, align 8, !tbaa !25
  store ptr %1, ptr %5, align 8, !tbaa !27
  store ptr %2, ptr %6, align 8, !tbaa !16
  %7 = load ptr, ptr %4, align 8
  store ptr getelementptr inbounds inrange(-16, 64) ({ [10 x ptr] }, ptr @_ZTV29btDeformableContactConstraint, i32 0, i32 0, i32 2), ptr %7, align 8, !tbaa !18
  %8 = getelementptr inbounds nuw %class.btDeformableContactConstraint, ptr %7, i32 0, i32 1
  store i8 0, ptr %8, align 8, !tbaa !29
  %9 = getelementptr inbounds nuw %class.btDeformableContactConstraint, ptr %7, i32 0, i32 2
  %10 = load ptr, ptr %6, align 8, !tbaa !16
  store ptr %10, ptr %9, align 8, !tbaa !30
  %11 = getelementptr inbounds nuw %class.btDeformableContactConstraint, ptr %7, i32 0, i32 3
  %12 = load ptr, ptr %5, align 8, !tbaa !27
  call void @llvm.memcpy.p0.p0.i64(ptr align 8 %11, ptr align 4 %12, i64 16, i1 false), !tbaa.struct !31
  ret void
}

; Function Attrs: mustprogress uwtable
define dso_local void @_ZN32btDeformableNodeAnchorConstraintC2ERKN10btSoftBody25DeformableNodeRigidAnchorERK19btContactSolverInfo(ptr noundef nonnull align 8 dereferenceable(48) %0, ptr noundef nonnull align 8 dereferenceable(872) %1, ptr noundef nonnull align 4 dereferenceable(128) %2) unnamed_addr #2 align 2 {
  %4 = alloca ptr, align 8
  %5 = alloca ptr, align 8
  %6 = alloca ptr, align 8
  store ptr %0, ptr %4, align 8, !tbaa !12
  store ptr %1, ptr %5, align 8, !tbaa !14
  store ptr %2, ptr %6, align 8, !tbaa !16
  %7 = load ptr, ptr %4, align 8
  %8 = load ptr, ptr %5, align 8, !tbaa !14
  %9 = getelementptr inbounds nuw %"class.btSoftBody::DeformableRigidContact", ptr %8, i32 0, i32 0
  %10 = getelementptr inbounds nuw %"struct.btSoftBody::sCti", ptr %9, i32 0, i32 1
  %11 = load ptr, ptr %6, align 8, !tbaa !16
  call void @_ZN29btDeformableContactConstraintC2ERK9btVector3RK19btContactSolverInfo(ptr noundef nonnull align 8 dereferenceable(40) %7, ptr noundef nonnull align 4 dereferenceable(16) %10, ptr noundef nonnull align 4 dereferenceable(128) %11)
  store ptr getelementptr inbounds inrange(-16, 64) ({ [10 x ptr] }, ptr @_ZTV32btDeformableNodeAnchorConstraint, i32 0, i32 0, i32 2), ptr %7, align 8, !tbaa !18
  %12 = getelementptr inbounds nuw %class.btDeformableNodeAnchorConstraint, ptr %7, i32 0, i32 1
  %13 = load ptr, ptr %5, align 8, !tbaa !14
  store ptr %13, ptr %12, align 8, !tbaa !20
  ret void
}