; Function Attrs: mustprogress nofree norecurse nosync nounwind willreturn memory(argmem: readwrite) uwtable
define dso_local void @_ZN32btDeformableNodeAnchorConstraintC2ERKN10btSoftBody25DeformableNodeRigidAnchorERK19btContactSolverInfo(ptr noundef nonnull writeonly align 8 captures(none) dereferenceable(48) initializes((0, 9), (16, 48)) %0, ptr noundef nonnull align 8 dereferenceable(872) %1, ptr noundef nonnull align 4 dereferenceable(128) %2) unnamed_addr #0 align 2 {
  %4 = getelementptr inbounds nuw i8, ptr %1, i64 8
  store ptr getelementptr inbounds nuw inrange(-16, 64) (i8, ptr @_ZTV29btDeformableContactConstraint, i64 16), ptr %0, align 8, !tbaa !4
  %5 = getelementptr inbounds nuw i8, ptr %0, i64 8
  store i8 0, ptr %5, align 8, !tbaa !7
  %6 = getelementptr inbounds nuw i8, ptr %0, i64 16
  store ptr %2, ptr %6, align 8, !tbaa !14
  %7 = getelementptr inbounds nuw i8, ptr %0, i64 24
  tail call void @llvm.memcpy.p0.p0.i64(ptr noundef nonnull align 8 dereferenceable(16) %7, ptr noundef nonnull align 8 dereferenceable(16) %4, i64 16, i1 false), !tbaa.struct !15
  store ptr getelementptr inbounds nuw inrange(-16, 64) (i8, ptr @_ZTV32btDeformableNodeAnchorConstraint, i64 16), ptr %0, align 8, !tbaa !4
  %8 = getelementptr inbounds nuw i8, ptr %0, i64 40
  store ptr %1, ptr %8, align 8, !tbaa !17
  ret void
}